; Function Attrs: mustprogress nounwind uwtable
define void @_ZNK5faiss5Index18compute_residual_nElPKfPfPKl(ptr noundef nonnull align 8 dereferenceable(36) %0, i64 noundef %1, ptr noundef %2, ptr noundef %3, ptr noundef %4) unnamed_addr #4 align 2 {
  %6 = alloca i64, align 8
  %7 = alloca ptr, align 8
  %8 = alloca ptr, align 8
  %9 = alloca ptr, align 8
  store i64 %1, ptr %6, align 8, !tbaa !10
  store ptr %2, ptr %7, align 8, !tbaa !22
  store ptr %3, ptr %8, align 8, !tbaa !22
  store ptr %4, ptr %9, align 8, !tbaa !20
  call void (ptr, i32, ptr, ...) @__kmpc_fork_call(ptr nonnull @2, i32 5, ptr nonnull @_ZNK5faiss5Index18compute_residual_nElPKfPfPKl.omp_outlined, ptr nonnull %6, ptr nonnull %0, ptr nonnull %7, ptr nonnull %8, ptr nonnull %9)
  ret void
}